; Function Attrs: mustprogress uwtable
define hidden void @_ZNK5zxing31GreyscaleRotatedLuminanceSource9getMatrixEv(ptr dead_on_unwind noalias writable writeonly sret(%"class.zxing::ArrayRef") align 8 captures(none) initializes((0, 12), (16, 24)) %0, ptr noundef nonnull readonly align 8 captures(none) dereferenceable(60) %1) unnamed_addr #0 align 2 personality ptr @__gxx_personality_v0 {
  %3 = getelementptr inbounds nuw i8, ptr %1, i64 12
  %4 = load i32, ptr %3, align 4
  %5 = getelementptr inbounds nuw i8, ptr %1, i64 16
  %6 = load i32, ptr %5, align 8
  %7 = mul nsw i32 %6, %4
  %8 = getelementptr inbounds nuw i8, ptr %0, i64 8
  store i32 0, ptr %8, align 8
  store ptr getelementptr inbounds nuw inrange(-16, 16) (i8, ptr @_ZTVN5zxing8ArrayRefIcEE, i64 16), ptr %0, align 8
  %9 = getelementptr inbounds nuw i8, ptr %0, i64 16
  store ptr null, ptr %9, align 8
  %10 = tail call noalias noundef nonnull dereferenceable(40) ptr @_Znwm(i64 noundef 40) #10
  invoke void @_ZN5zxing5ArrayIcEC2Ei(ptr noundef nonnull align 8 dereferenceable(40) %10, i32 noundef %7)
          to label %_ZN5zxing8ArrayRefIcEC2Ei.exit unwind label %11

11:                                               ; preds = %2
  %12 = landingpad { ptr, i32 }
          cleanup
  tail call void @_ZdlPv(ptr noundef nonnull %10) #11
  resume { ptr, i32 } %12

_ZN5zxing8ArrayRefIcEC2Ei.exit:                   ; preds = %2
  %13 = getelementptr inbounds nuw i8, ptr %10, i64 8
  %14 = load i32, ptr %13, align 8
  %15 = add i32 %14, 1
  store i32 %15, ptr %13, align 8
  store ptr %10, ptr %9, align 8
  %16 = load i32, ptr %5, align 8
  %17 = icmp sgt i32 %16, 0
  br i1 %17, label %.lr.ph18, label %._crit_edge19

.lr.ph18:                                         ; preds = %_ZN5zxing8ArrayRefIcEC2Ei.exit
  %18 = getelementptr inbounds nuw i8, ptr %10, i64 16
  %19 = getelementptr inbounds nuw i8, ptr %1, i64 52
  %20 = getelementptr inbounds nuw i8, ptr %1, i64 48
  %21 = getelementptr inbounds nuw i8, ptr %1, i64 56
  %22 = getelementptr inbounds nuw i8, ptr %1, i64 40
  %23 = load i32, ptr %3, align 4
  %24 = icmp sgt i32 %23, 0
  br i1 %24, label %.lr.ph18.split.preheader, label %._crit_edge19

.lr.ph18.split.preheader:                         ; preds = %.lr.ph18
  %.pre = load i32, ptr %20, align 8
  br label %.lr.ph18.split

.lr.ph18.split:                                   ; preds = %.lr.ph18.split.preheader, %._crit_edge
  %25 = phi i32 [ %52, %._crit_edge ], [ %16, %.lr.ph18.split.preheader ]
  %26 = phi i32 [ %53, %._crit_edge ], [ %23, %.lr.ph18.split.preheader ]
  %27 = phi i32 [ %54, %._crit_edge ], [ %.pre, %.lr.ph18.split.preheader ]
  %.01417 = phi i32 [ %55, %._crit_edge ], [ 0, %.lr.ph18.split.preheader ]
  %28 = mul nsw i32 %26, %.01417
  %29 = sext i32 %28 to i64
  %30 = load ptr, ptr %18, align 8
  %31 = getelementptr inbounds i8, ptr %30, i64 %29
  %32 = icmp sgt i32 %26, 0
  br i1 %32, label %.lr.ph.preheader, label %._crit_edge

.lr.ph.preheader:                                 ; preds = %.lr.ph18.split
  %33 = load i32, ptr %19, align 4
  %34 = add i32 %33, 1
  %35 = mul i32 %27, %34
  %36 = load i32, ptr %21, align 8
  %37 = add nsw i32 %36, %.01417
  %38 = xor i32 %37, -1
  %39 = add i32 %35, %38
  br label %.lr.ph

.lr.ph:                                           ; preds = %.lr.ph.preheader, %.lr.ph
  %indvars.iv = phi i64 [ 0, %.lr.ph.preheader ], [ %indvars.iv.next, %.lr.ph ]
  %.01315 = phi i32 [ %39, %.lr.ph.preheader ], [ %48, %.lr.ph ]
  %40 = load ptr, ptr %22, align 8
  %41 = getelementptr inbounds nuw i8, ptr %40, i64 16
  %42 = sext i32 %.01315 to i64
  %43 = load ptr, ptr %41, align 8
  %44 = getelementptr inbounds i8, ptr %43, i64 %42
  %45 = load i8, ptr %44, align 1
  %46 = getelementptr inbounds nuw i8, ptr %31, i64 %indvars.iv
  store i8 %45, ptr %46, align 1
  %47 = load i32, ptr %20, align 8
  %48 = add nsw i32 %47, %.01315
  %indvars.iv.next = add nuw nsw i64 %indvars.iv, 1
  %49 = load i32, ptr %3, align 4
  %50 = sext i32 %49 to i64
  %51 = icmp slt i64 %indvars.iv.next, %50
  br i1 %51, label %.lr.ph, label %._crit_edge.loopexit, !llvm.loop !6

._crit_edge.loopexit:                             ; preds = %.lr.ph
  %.pre22 = load i32, ptr %5, align 8
  br label %._crit_edge

._crit_edge:                                      ; preds = %._crit_edge.loopexit, %.lr.ph18.split
  %52 = phi i32 [ %.pre22, %._crit_edge.loopexit ], [ %25, %.lr.ph18.split ]
  %53 = phi i32 [ %49, %._crit_edge.loopexit ], [ %26, %.lr.ph18.split ]
  %54 = phi i32 [ %47, %._crit_edge.loopexit ], [ %27, %.lr.ph18.split ]
  %55 = add nuw nsw i32 %.01417, 1
  %56 = icmp slt i32 %55, %52
  br i1 %56, label %.lr.ph18.split, label %._crit_edge19, !llvm.loop !7

._crit_edge19:                                    ; preds = %._crit_edge, %.lr.ph18, %_ZN5zxing8ArrayRefIcEC2Ei.exit
  ret void
}